; Function Attrs: nounwind uwtable
define noundef ptr @l_Lean_Parser_Tactic___aux__Init__Tactics______macroRules__Lean__Parser__Tactic__bvDecideMacro__1(ptr noundef %0, ptr noundef %1, ptr noundef %2) local_unnamed_addr #0 {
  %4 = load ptr, ptr @l_Lean_Parser_Tactic_bvDecideMacro___closed__2, align 8, !tbaa !4
  %5 = tail call zeroext i8 @l_Lean_Syntax_isOfKind(ptr noundef %0, ptr noundef %4) #5
  %6 = icmp eq i8 %5, 0
  br i1 %6, label %7, label %11

7:                                                ; preds = %3
  tail call void @lean_inc_heartbeat() #5
  %8 = tail call noalias ptr @mi_malloc_small(i64 noundef 24) #5
  %9 = icmp eq ptr %8, null
  br i1 %9, label %10, label %.sink.split

10:                                               ; preds = %7
  tail call void @lean_internal_panic_out_of_memory() #6
  unreachable

11:                                               ; preds = %3
  %12 = load ptr, ptr @l_Lean_Parser_Tactic___aux__Init__Tactics______macroRules__Lean__Parser__Tactic__bvDecideMacro__1___closed__1, align 8, !tbaa !4
  %13 = tail call ptr @l_Lean_Macro_throwError___rarg(ptr noundef %12, ptr noundef %1, ptr noundef %2) #5
  %.val = load i32, ptr %13, align 4, !tbaa !8
  %14 = icmp eq i32 %.val, 1
  br i1 %14, label %51, label %15

15:                                               ; preds = %11
  %16 = getelementptr inbounds nuw i8, ptr %13, i64 8
  %17 = load ptr, ptr %16, align 8, !tbaa !4
  %18 = getelementptr inbounds nuw i8, ptr %13, i64 16
  %19 = load ptr, ptr %18, align 8, !tbaa !4
  %20 = ptrtoint ptr %19 to i64
  %21 = and i64 %20, 1
  %.not = icmp eq i64 %21, 0
  br i1 %.not, label %22, label %lean_inc.exit24

22:                                               ; preds = %15
  %.val.i = load i32, ptr %19, align 4, !tbaa !8
  %23 = icmp sgt i32 %.val.i, 0
  br i1 %23, label %24, label %26, !prof !11

24:                                               ; preds = %22
  %25 = add nuw i32 %.val.i, 1
  store i32 %25, ptr %19, align 4, !tbaa !8
  br label %lean_inc.exit24

26:                                               ; preds = %22
  %.not.i25 = icmp eq i32 %.val.i, 0
  br i1 %.not.i25, label %lean_inc.exit24, label %27

27:                                               ; preds = %26
  tail call void @lean_inc_ref_cold(ptr noundef nonnull %19) #5
  br label %lean_inc.exit24

lean_inc.exit24:                                  ; preds = %27, %26, %24, %15
  %28 = ptrtoint ptr %17 to i64
  %29 = and i64 %28, 1
  %.not30 = icmp eq i64 %29, 0
  br i1 %.not30, label %30, label %lean_inc.exit

30:                                               ; preds = %lean_inc.exit24
  %.val.i26 = load i32, ptr %17, align 4, !tbaa !8
  %31 = icmp sgt i32 %.val.i26, 0
  br i1 %31, label %32, label %34, !prof !11

32:                                               ; preds = %30
  %33 = add nuw i32 %.val.i26, 1
  store i32 %33, ptr %17, align 4, !tbaa !8
  br label %lean_inc.exit

34:                                               ; preds = %30
  %.not.i27 = icmp eq i32 %.val.i26, 0
  br i1 %.not.i27, label %lean_inc.exit, label %35

35:                                               ; preds = %34
  tail call void @lean_inc_ref_cold(ptr noundef nonnull %17) #5
  br label %lean_inc.exit

lean_inc.exit:                                    ; preds = %35, %34, %32, %lean_inc.exit24
  %36 = ptrtoint ptr %13 to i64
  %37 = and i64 %36, 1
  %.not31 = icmp eq i64 %37, 0
  br i1 %.not31, label %38, label %lean_dec.exit

38:                                               ; preds = %lean_inc.exit
  %39 = load i32, ptr %13, align 4, !tbaa !8
  %40 = icmp sgt i32 %39, 1
  br i1 %40, label %41, label %43, !prof !11

41:                                               ; preds = %38
  %42 = add nsw i32 %39, -1
  store i32 %42, ptr %13, align 4, !tbaa !8
  br label %lean_dec.exit

43:                                               ; preds = %38
  %.not.i = icmp eq i32 %39, 0
  br i1 %.not.i, label %lean_dec.exit, label %44

44:                                               ; preds = %43
  tail call void @lean_dec_ref_cold(ptr noundef nonnull %13) #5
  br label %lean_dec.exit

lean_dec.exit:                                    ; preds = %44, %43, %41, %lean_inc.exit
  tail call void @lean_inc_heartbeat() #5
  %45 = tail call noalias ptr @mi_malloc_small(i64 noundef 24) #5
  %46 = icmp eq ptr %45, null
  br i1 %46, label %47, label %.sink.split

47:                                               ; preds = %lean_dec.exit
  tail call void @lean_internal_panic_out_of_memory() #6
  unreachable

.sink.split:                                      ; preds = %lean_dec.exit, %7
  %.sink39 = phi ptr [ %8, %7 ], [ %45, %lean_dec.exit ]
  %.sink34 = phi ptr [ inttoptr (i64 3 to ptr), %7 ], [ %17, %lean_dec.exit ]
  %.sink = phi ptr [ %2, %7 ], [ %19, %lean_dec.exit ]
  %48 = getelementptr inbounds nuw i8, ptr %.sink39, i64 4
  store i32 1, ptr %.sink39, align 4, !tbaa !8
  store i32 16908312, ptr %48, align 4
  %49 = getelementptr inbounds nuw i8, ptr %.sink39, i64 8
  store ptr %.sink34, ptr %49, align 8, !tbaa !4
  %50 = getelementptr inbounds nuw i8, ptr %.sink39, i64 16
  store ptr %.sink, ptr %50, align 8, !tbaa !4
  br label %51

51:                                               ; preds = %.sink.split, %11
  %.0 = phi ptr [ %13, %11 ], [ %.sink39, %.sink.split ]
  ret ptr %.0
}